; Function Attrs: mustprogress uwtable
define hidden noundef ptr @_Z13luaV_tonumberPK10lua_TValuePS_(ptr noundef readonly %0, ptr noundef writeonly %1) local_unnamed_addr #0 {
  %3 = alloca double, align 8
  call void @llvm.lifetime.start.p0(i64 8, ptr nonnull %3) #11
  %4 = getelementptr inbounds nuw i8, ptr %0, i64 12
  %5 = load i32, ptr %4, align 4, !tbaa !4
  switch i32 %5, label %13 [
    i32 3, label %14
    i32 5, label %6
  ]

6:                                                ; preds = %2
  %7 = load ptr, ptr %0, align 8, !tbaa !9
  %8 = getelementptr inbounds nuw i8, ptr %7, i64 24
  %9 = call noundef i32 @_Z10luaO_str2dPKcPd(ptr noundef nonnull %8, ptr noundef nonnull %3)
  %.not = icmp eq i32 %9, 0
  br i1 %.not, label %13, label %10

10:                                               ; preds = %6
  %11 = load double, ptr %3, align 8, !tbaa !10
  store double %11, ptr %1, align 8, !tbaa !9
  %12 = getelementptr inbounds nuw i8, ptr %1, i64 12
  store i32 3, ptr %12, align 4, !tbaa !4
  br label %14

13:                                               ; preds = %2, %6
  br label %14

14:                                               ; preds = %2, %13, %10
  %.0 = phi ptr [ %1, %10 ], [ null, %13 ], [ %0, %2 ]
  call void @llvm.lifetime.end.p0(i64 8, ptr nonnull %3) #11
  ret ptr %.0
}